; ModuleID = '32/670.c'
source_filename = "32/670.c"
target datalayout = "e-m:e-p270:32:32-p271:32:32-p272:64:64-i64:64-f80:128-n8:16:32:64-S128"
target triple = "x86_64-pc-linux-gnu"

@.str = private unnamed_addr constant [4 x i8] c"%d\0A\00", align 1

; Function Attrs: noinline nounwind uwtable
define dso_local void @main() #0 {
  %1 = alloca [102 x i8], align 16
  %2 = alloca [102 x i8], align 16
  %3 = alloca i32, align 4
  %4 = alloca i32, align 4
  %5 = alloca i32, align 4
  %6 = alloca i32, align 4
  %7 = alloca i32, align 4
  %8 = alloca i32, align 4
  %9 = alloca i32, align 4
  %10 = alloca i32, align 4
  %11 = call i32 (i8*, ...) @__isoc99_scanf(i8* getelementptr inbounds ([4 x i8], [4 x i8]* @.str, i64 0, i64 0), i32* %6)
  store i32 1, i32* %9, align 4
  br label %12

12:                                               ; preds = %199, %0
  %13 = load i32, i32* %9, align 4
  %14 = load i32, i32* %6, align 4
  %15 = icmp sle i32 %13, %14
  br i1 %15, label %16, label %202

16:                                               ; preds = %12
  %17 = getelementptr inbounds [102 x i8], [102 x i8]* %1, i64 0, i64 0
  %18 = call i32 (i8*, ...) bitcast (i32 (...)* @gets to i32 (i8*, ...)*)(i8* %17)
  %19 = getelementptr inbounds [102 x i8], [102 x i8]* %2, i64 0, i64 0
  %20 = call i32 (i8*, ...) bitcast (i32 (...)* @gets to i32 (i8*, ...)*)(i8* %19)
  %21 = load i32, i32* %9, align 4
  %22 = load i32, i32* %6, align 4
  %23 = icmp slt i32 %21, %22
  br i1 %23, label %24, label %26

24:                                               ; preds = %16
  %25 = call i32 @getchar()
  br label %26

26:                                               ; preds = %24, %16
  %27 = getelementptr inbounds [102 x i8], [102 x i8]* %1, i64 0, i64 0
  %28 = call i64 @strlen(i8* %27) #3
  %29 = trunc i64 %28 to i32
  store i32 %29, i32* %8, align 4
  %30 = getelementptr inbounds [102 x i8], [102 x i8]* %2, i64 0, i64 0
  %31 = call i64 @strlen(i8* %30) #3
  %32 = trunc i64 %31 to i32
  store i32 %32, i32* %10, align 4
  store i32 0, i32* %3, align 4
  %33 = load i32, i32* %10, align 4
  %34 = sub nsw i32 %33, 1
  store i32 %34, i32* %4, align 4
  br label %35

35:                                               ; preds = %112, %26
  %36 = load i32, i32* %4, align 4
  %37 = icmp sge i32 %36, 0
  br i1 %37, label %38, label %115

38:                                               ; preds = %35
  %39 = load i32, i32* %8, align 4
  %40 = load i32, i32* %4, align 4
  %41 = add nsw i32 %39, %40
  %42 = load i32, i32* %10, align 4
  %43 = sub nsw i32 %41, %42
  %44 = sext i32 %43 to i64
  %45 = getelementptr inbounds [102 x i8], [102 x i8]* %1, i64 0, i64 %44
  %46 = load i8, i8* %45, align 1
  %47 = sext i8 %46 to i32
  %48 = load i32, i32* %3, align 4
  %49 = sub nsw i32 %47, %48
  %50 = load i32, i32* %4, align 4
  %51 = sext i32 %50 to i64
  %52 = getelementptr inbounds [102 x i8], [102 x i8]* %2, i64 0, i64 %51
  %53 = load i8, i8* %52, align 1
  %54 = sext i8 %53 to i32
  %55 = icmp slt i32 %49, %54
  br i1 %55, label %56, label %84

56:                                               ; preds = %38
  %57 = load i32, i32* %8, align 4
  %58 = load i32, i32* %4, align 4
  %59 = add nsw i32 %57, %58
  %60 = load i32, i32* %10, align 4
  %61 = sub nsw i32 %59, %60
  %62 = sext i32 %61 to i64
  %63 = getelementptr inbounds [102 x i8], [102 x i8]* %1, i64 0, i64 %62
  %64 = load i8, i8* %63, align 1
  %65 = sext i8 %64 to i32
  %66 = add nsw i32 %65, 10
  %67 = load i32, i32* %3, align 4
  %68 = sub nsw i32 %66, %67
  %69 = load i32, i32* %4, align 4
  %70 = sext i32 %69 to i64
  %71 = getelementptr inbounds [102 x i8], [102 x i8]* %2, i64 0, i64 %70
  %72 = load i8, i8* %71, align 1
  %73 = sext i8 %72 to i32
  %74 = sub nsw i32 %68, %73
  %75 = add nsw i32 %74, 48
  %76 = trunc i32 %75 to i8
  %77 = load i32, i32* %8, align 4
  %78 = load i32, i32* %4, align 4
  %79 = add nsw i32 %77, %78
  %80 = load i32, i32* %10, align 4
  %81 = sub nsw i32 %79, %80
  %82 = sext i32 %81 to i64
  %83 = getelementptr inbounds [102 x i8], [102 x i8]* %1, i64 0, i64 %82
  store i8 %76, i8* %83, align 1
  store i32 1, i32* %3, align 4
  br label %111

84:                                               ; preds = %38
  %85 = load i32, i32* %8, align 4
  %86 = load i32, i32* %4, align 4
  %87 = add nsw i32 %85, %86
  %88 = load i32, i32* %10, align 4
  %89 = sub nsw i32 %87, %88
  %90 = sext i32 %89 to i64
  %91 = getelementptr inbounds [102 x i8], [102 x i8]* %1, i64 0, i64 %90
  %92 = load i8, i8* %91, align 1
  %93 = sext i8 %92 to i32
  %94 = load i32, i32* %3, align 4
  %95 = sub nsw i32 %93, %94
  %96 = load i32, i32* %4, align 4
  %97 = sext i32 %96 to i64
  %98 = getelementptr inbounds [102 x i8], [102 x i8]* %2, i64 0, i64 %97
  %99 = load i8, i8* %98, align 1
  %100 = sext i8 %99 to i32
  %101 = sub nsw i32 %95, %100
  %102 = add nsw i32 %101, 48
  %103 = trunc i32 %102 to i8
  %104 = load i32, i32* %8, align 4
  %105 = load i32, i32* %4, align 4
  %106 = add nsw i32 %104, %105
  %107 = load i32, i32* %10, align 4
  %108 = sub nsw i32 %106, %107
  %109 = sext i32 %108 to i64
  %110 = getelementptr inbounds [102 x i8], [102 x i8]* %1, i64 0, i64 %109
  store i8 %103, i8* %110, align 1
  store i32 0, i32* %3, align 4
  br label %111

111:                                              ; preds = %84, %56
  br label %112

112:                                              ; preds = %111
  %113 = load i32, i32* %4, align 4
  %114 = add nsw i32 %113, -1
  store i32 %114, i32* %4, align 4
  br label %35

115:                                              ; preds = %35
  store i32 1, i32* %4, align 4
  br label %116

116:                                              ; preds = %163, %115
  %117 = load i32, i32* %3, align 4
  %118 = icmp eq i32 %117, 1
  br i1 %118, label %119, label %164

119:                                              ; preds = %116
  %120 = load i32, i32* %8, align 4
  %121 = load i32, i32* %4, align 4
  %122 = sub nsw i32 %120, %121
  %123 = load i32, i32* %10, align 4
  %124 = sub nsw i32 %122, %123
  %125 = sext i32 %124 to i64
  %126 = getelementptr inbounds [102 x i8], [102 x i8]* %1, i64 0, i64 %125
  %127 = load i8, i8* %126, align 1
  %128 = sext i8 %127 to i32
  %129 = icmp eq i32 %128, 48
  br i1 %129, label %130, label %144

130:                                              ; preds = %119
  %131 = load i32, i32* %8, align 4
  %132 = load i32, i32* %4, align 4
  %133 = sub nsw i32 %131, %132
  %134 = load i32, i32* %10, align 4
  %135 = sub nsw i32 %133, %134
  %136 = sext i32 %135 to i64
  %137 = getelementptr inbounds [102 x i8], [102 x i8]* %1, i64 0, i64 %136
  %138 = load i8, i8* %137, align 1
  %139 = sext i8 %138 to i32
  %140 = add nsw i32 %139, 9
  %141 = trunc i32 %140 to i8
  store i8 %141, i8* %137, align 1
  %142 = load i32, i32* %4, align 4
  %143 = add nsw i32 %142, 1
  store i32 %143, i32* %4, align 4
  br label %163

144:                                              ; preds = %119
  %145 = load i32, i32* %8, align 4
  %146 = load i32, i32* %4, align 4
  %147 = sub nsw i32 %145, %146
  %148 = load i32, i32* %10, align 4
  %149 = sub nsw i32 %147, %148
  %150 = sext i32 %149 to i64
  %151 = getelementptr inbounds [102 x i8], [102 x i8]* %1, i64 0, i64 %150
  %152 = load i8, i8* %151, align 1
  %153 = sext i8 %152 to i32
  %154 = sub nsw i32 %153, 1
  %155 = trunc i32 %154 to i8
  %156 = load i32, i32* %8, align 4
  %157 = load i32, i32* %4, align 4
  %158 = sub nsw i32 %156, %157
  %159 = load i32, i32* %10, align 4
  %160 = sub nsw i32 %158, %159
  %161 = sext i32 %160 to i64
  %162 = getelementptr inbounds [102 x i8], [102 x i8]* %1, i64 0, i64 %161
  store i8 %155, i8* %162, align 1
  store i32 0, i32* %3, align 4
  br label %163

163:                                              ; preds = %144, %130
  br label %116

164:                                              ; preds = %116
  store i32 0, i32* %4, align 4
  store i32 1, i32* %3, align 4
  br label %165

165:                                              ; preds = %179, %164
  %166 = load i32, i32* %3, align 4
  %167 = icmp eq i32 %166, 1
  br i1 %167, label %168, label %180

168:                                              ; preds = %165
  %169 = load i32, i32* %4, align 4
  %170 = sext i32 %169 to i64
  %171 = getelementptr inbounds [102 x i8], [102 x i8]* %1, i64 0, i64 %170
  %172 = load i8, i8* %171, align 1
  %173 = sext i8 %172 to i32
  %174 = icmp eq i32 %173, 48
  br i1 %174, label %175, label %178

175:                                              ; preds = %168
  %176 = load i32, i32* %4, align 4
  %177 = add nsw i32 %176, 1
  store i32 %177, i32* %4, align 4
  br label %179

178:                                              ; preds = %168
  store i32 0, i32* %3, align 4
  br label %179

179:                                              ; preds = %178, %175
  br label %165

180:                                              ; preds = %165
  %181 = load i32, i32* %4, align 4
  store i32 %181, i32* %5, align 4
  br label %182

182:                                              ; preds = %194, %180
  %183 = load i32, i32* %5, align 4
  %184 = load i32, i32* %8, align 4
  %185 = sub nsw i32 %184, 1
  %186 = icmp sle i32 %183, %185
  br i1 %186, label %187, label %197

187:                                              ; preds = %182
  %188 = load i32, i32* %5, align 4
  %189 = sext i32 %188 to i64
  %190 = getelementptr inbounds [102 x i8], [102 x i8]* %1, i64 0, i64 %189
  %191 = load i8, i8* %190, align 1
  %192 = sext i8 %191 to i32
  %193 = call i32 @putchar(i32 %192)
  br label %194

194:                                              ; preds = %187
  %195 = load i32, i32* %5, align 4
  %196 = add nsw i32 %195, 1
  store i32 %196, i32* %5, align 4
  br label %182

197:                                              ; preds = %182
  %198 = call i32 @putchar(i32 10)
  br label %199

199:                                              ; preds = %197
  %200 = load i32, i32* %9, align 4
  %201 = add nsw i32 %200, 1
  store i32 %201, i32* %9, align 4
  br label %12

202:                                              ; preds = %12
  ret void
}

declare dso_local i32 @__isoc99_scanf(i8*, ...) #1

declare dso_local i32 @gets(...) #1

declare dso_local i32 @getchar() #1

; Function Attrs: nounwind readonly
declare dso_local i64 @strlen(i8*) #2

declare dso_local i32 @putchar(i32) #1


!llvm.module.flags = !{!0}
!llvm.ident = !{!1}

!0 = !{i32 1, !"wchar_size", i32 4}
!1 = !{!"clang version 10.0.0-4ubuntu1 "}
